; Function Attrs: nounwind uwtable
define range(i32 -1, 1) i32 @H5AC_ignore_tags(ptr noundef readonly captures(none) %0) local_unnamed_addr #4 {
  %2 = load i8, ptr @H5AC_init_g, align 1, !tbaa !3, !range !7, !noundef !8
  %3 = trunc nuw i8 %2 to i1
  %4 = load i8, ptr @H5_libterm_g, align 1, !range !7
  %5 = trunc nuw i8 %4 to i1
  %6 = select i1 %3, i1 true, i1 %5
  br i1 %6, label %7, label %.thread, !prof !9

.thread:                                          ; preds = %1
  store i8 1, ptr @H5AC_init_g, align 1, !tbaa !3
  br label %10

7:                                                ; preds = %1
  %8 = xor i1 %5, true
  %9 = select i1 %3, i1 true, i1 %8
  br i1 %9, label %10, label %21, !prof !41

10:                                               ; preds = %.thread, %7
  %11 = getelementptr inbounds nuw i8, ptr %0, i64 16
  %12 = load ptr, ptr %11, align 8, !tbaa !11
  %13 = getelementptr inbounds nuw i8, ptr %12, i64 112
  %14 = load ptr, ptr %13, align 8, !tbaa !20
  %15 = tail call i32 @H5C_ignore_tags(ptr noundef %14) #8
  %16 = icmp slt i32 %15, 0
  br i1 %16, label %17, label %21

17:                                               ; preds = %10
  %18 = load i64, ptr @H5E_CACHE_g, align 8, !tbaa !42
  %19 = load i64, ptr @H5E_CANTSET_g, align 8, !tbaa !42
  %20 = tail call i32 (ptr, ptr, i32, i64, i64, ptr, ...) @H5E_printf_stack(ptr noundef nonnull @.str, ptr noundef nonnull @__func__.H5AC_ignore_tags, i32 noundef 2124, i64 noundef %18, i64 noundef %19, ptr noundef nonnull @.str.59) #8
  br label %21

21:                                               ; preds = %17, %10, %7
  %.0 = phi i32 [ -1, %17 ], [ 0, %10 ], [ 0, %7 ]
  ret i32 %.0
}